target datalayout = "e-m:e-p270:32:32-p271:32:32-p272:64:64-i64:64-i128:128-f80:128-n8:16:32:64-S128"
target triple = "x86_64-pc-linux-gnu"

%struct.evp_test_st = type { %struct.stanza_st, ptr, i32, ptr, ptr, ptr, ptr, ptr, ptr, i32 }
%struct.stanza_st = type { ptr, ptr, i32, i32, i32, i32, i32, i32, [150 x %struct.pair_st], ptr, [32768 x i8] }
%struct.pair_st = type { ptr, ptr }
%struct.key_list_st = type { ptr, ptr, ptr }
%struct.pkey_data_st = type { ptr, ptr, ptr, ptr, ptr, ptr, i64, ptr, i64, ptr, ptr, ptr, i32 }

@.str.29 = private unnamed_addr constant [27 x i8] c"../openssl/test/evp_test.c\00", align 1
@public_keys = internal global ptr null, align 8
@.str.95 = private unnamed_addr constant [9 x i8] c"CtrlInit\00", align 1
@.str.252 = private unnamed_addr constant [5 x i8] c"Ctrl\00", align 1
@.str.441 = private unnamed_addr constant [16 x i8] c"PeerKeyValidate\00", align 1
@.str.442 = private unnamed_addr constant [8 x i8] c"PeerKey\00", align 1
@.str.443 = private unnamed_addr constant [13 x i8] c"SharedSecret\00", align 1

; Function Attrs: inlinehint nounwind uwtable
define internal ptr @ossl_check_OPENSSL_STRING_type(ptr noundef %0) #5 {
  %2 = alloca ptr, align 8
  store ptr %0, ptr %2, align 8, !tbaa !4
  %3 = load ptr, ptr %2, align 8, !tbaa !4
  ret ptr %3
}

; Function Attrs: inlinehint nounwind uwtable
define internal ptr @ossl_check_OPENSSL_STRING_sk_type(ptr noundef %0) #5 {
  %2 = alloca ptr, align 8
  store ptr %0, ptr %2, align 8, !tbaa !131
  %3 = load ptr, ptr %2, align 8, !tbaa !131
  ret ptr %3
}

; Function Attrs: nounwind uwtable
define internal i32 @ctrladd(ptr noundef %0, ptr noundef %1) #0 {
  %3 = alloca i32, align 4
  %4 = alloca ptr, align 8
  %5 = alloca ptr, align 8
  %6 = alloca ptr, align 8
  %7 = alloca i32, align 4
  store ptr %0, ptr %4, align 8, !tbaa !131
  store ptr %1, ptr %5, align 8, !tbaa !4
  call void @llvm.lifetime.start.p0(i64 8, ptr %6) #10
  %8 = load ptr, ptr %5, align 8, !tbaa !4
  %9 = call noalias ptr @CRYPTO_strdup(ptr noundef %8, ptr noundef @.str.29, i32 noundef 202)
  store ptr %9, ptr %6, align 8, !tbaa !4
  %10 = load ptr, ptr %6, align 8, !tbaa !4
  %11 = icmp eq ptr %10, null
  br i1 %11, label %12, label %13

12:                                               ; preds = %2
  store i32 -1, ptr %3, align 4
  store i32 1, ptr %7, align 4
  br label %23

13:                                               ; preds = %2
  %14 = load ptr, ptr %4, align 8, !tbaa !131
  %15 = call ptr @ossl_check_OPENSSL_STRING_sk_type(ptr noundef %14)
  %16 = load ptr, ptr %6, align 8, !tbaa !4
  %17 = call ptr @ossl_check_OPENSSL_STRING_type(ptr noundef %16)
  %18 = call i32 @OPENSSL_sk_push(ptr noundef %15, ptr noundef %17)
  %19 = icmp sle i32 %18, 0
  br i1 %19, label %20, label %22

20:                                               ; preds = %13
  %21 = load ptr, ptr %6, align 8, !tbaa !4
  call void @CRYPTO_free(ptr noundef %21, ptr noundef @.str.29, i32 noundef 208)
  store i32 -1, ptr %3, align 4
  store i32 1, ptr %7, align 4
  br label %23

22:                                               ; preds = %13
  store i32 1, ptr %3, align 4
  store i32 1, ptr %7, align 4
  br label %23

23:                                               ; preds = %22, %20, %12
  call void @llvm.lifetime.end.p0(i64 8, ptr %6) #10
  %24 = load i32, ptr %3, align 4
  ret i32 %24
}

; Function Attrs: nounwind uwtable
define internal i32 @find_key(ptr noundef %0, ptr noundef %1, ptr noundef %2) #0 {
  %4 = alloca i32, align 4
  %5 = alloca ptr, align 8
  %6 = alloca ptr, align 8
  %7 = alloca ptr, align 8
  store ptr %0, ptr %5, align 8, !tbaa !80
  store ptr %1, ptr %6, align 8, !tbaa !4
  store ptr %2, ptr %7, align 8, !tbaa !28
  br label %8

8:                                                ; preds = %28, %3
  %9 = load ptr, ptr %7, align 8, !tbaa !28
  %10 = icmp ne ptr %9, null
  br i1 %10, label %11, label %32

11:                                               ; preds = %8
  %12 = load ptr, ptr %7, align 8, !tbaa !28
  %13 = getelementptr inbounds nuw %struct.key_list_st, ptr %12, i32 0, i32 0
  %14 = load ptr, ptr %13, align 8, !tbaa !50
  %15 = load ptr, ptr %6, align 8, !tbaa !4
  %16 = call i32 @strcmp(ptr noundef %14, ptr noundef %15) #11
  %17 = icmp eq i32 %16, 0
  br i1 %17, label %18, label %27

18:                                               ; preds = %11
  %19 = load ptr, ptr %5, align 8, !tbaa !80
  %20 = icmp ne ptr %19, null
  br i1 %20, label %21, label %26

21:                                               ; preds = %18
  %22 = load ptr, ptr %7, align 8, !tbaa !28
  %23 = getelementptr inbounds nuw %struct.key_list_st, ptr %22, i32 0, i32 1
  %24 = load ptr, ptr %23, align 8, !tbaa !52
  %25 = load ptr, ptr %5, align 8, !tbaa !80
  store ptr %24, ptr %25, align 8, !tbaa !41
  br label %26

26:                                               ; preds = %21, %18
  store i32 1, ptr %4, align 4
  br label %33

27:                                               ; preds = %11
  br label %28

28:                                               ; preds = %27
  %29 = load ptr, ptr %7, align 8, !tbaa !28
  %30 = getelementptr inbounds nuw %struct.key_list_st, ptr %29, i32 0, i32 2
  %31 = load ptr, ptr %30, align 8, !tbaa !53
  store ptr %31, ptr %7, align 8, !tbaa !28
  br label %8, !llvm.loop !82

32:                                               ; preds = %8
  store i32 0, ptr %4, align 4
  br label %33

33:                                               ; preds = %32, %26
  %34 = load i32, ptr %4, align 4
  ret i32 %34
}

; Function Attrs: nounwind uwtable
define internal i32 @pderive_test_parse(ptr noundef %0, ptr noundef %1, ptr noundef %2) #0 {
  %4 = alloca i32, align 4
  %5 = alloca ptr, align 8
  %6 = alloca ptr, align 8
  %7 = alloca ptr, align 8
  %8 = alloca ptr, align 8
  %9 = alloca i32, align 4
  %10 = alloca ptr, align 8
  %11 = alloca i32, align 4
  store ptr %0, ptr %5, align 8, !tbaa !15
  store ptr %1, ptr %6, align 8, !tbaa !4
  store ptr %2, ptr %7, align 8, !tbaa !4
  call void @llvm.lifetime.start.p0(i64 8, ptr %8) #10
  %12 = load ptr, ptr %5, align 8, !tbaa !15
  %13 = getelementptr inbounds nuw %struct.evp_test_st, ptr %12, i32 0, i32 8
  %14 = load ptr, ptr %13, align 8, !tbaa !66
  store ptr %14, ptr %8, align 8, !tbaa !346
  call void @llvm.lifetime.start.p0(i64 4, ptr %9) #10
  store i32 0, ptr %9, align 4, !tbaa !9
  %15 = load ptr, ptr %6, align 8, !tbaa !4
  %16 = call i32 @strcmp(ptr noundef %15, ptr noundef @.str.441) #11
  %17 = icmp eq i32 %16, 0
  br i1 %17, label %18, label %19

18:                                               ; preds = %3
  store i32 1, ptr %9, align 4, !tbaa !9
  br label %19

19:                                               ; preds = %18, %3
  %20 = load i32, ptr %9, align 4, !tbaa !9
  %21 = icmp ne i32 %20, 0
  br i1 %21, label %26, label %22

22:                                               ; preds = %19
  %23 = load ptr, ptr %6, align 8, !tbaa !4
  %24 = call i32 @strcmp(ptr noundef %23, ptr noundef @.str.442) #11
  %25 = icmp eq i32 %24, 0
  br i1 %25, label %26, label %40

26:                                               ; preds = %22, %19
  call void @llvm.lifetime.start.p0(i64 8, ptr %10) #10
  store ptr null, ptr %10, align 8, !tbaa !41
  %27 = load i32, ptr %9, align 4, !tbaa !9
  %28 = load ptr, ptr %8, align 8, !tbaa !346
  %29 = getelementptr inbounds nuw %struct.pkey_data_st, ptr %28, i32 0, i32 12
  store i32 %27, ptr %29, align 8, !tbaa !362
  %30 = load ptr, ptr %7, align 8, !tbaa !4
  %31 = load ptr, ptr @public_keys, align 8, !tbaa !28
  %32 = call i32 @find_key(ptr noundef %10, ptr noundef %30, ptr noundef %31)
  %33 = icmp eq i32 %32, 0
  br i1 %33, label %34, label %35

34:                                               ; preds = %26
  store i32 -1, ptr %4, align 4
  store i32 1, ptr %11, align 4
  br label %39

35:                                               ; preds = %26
  %36 = load ptr, ptr %10, align 8, !tbaa !41
  %37 = load ptr, ptr %8, align 8, !tbaa !346
  %38 = getelementptr inbounds nuw %struct.pkey_data_st, ptr %37, i32 0, i32 11
  store ptr %36, ptr %38, align 8, !tbaa !363
  store i32 1, ptr %4, align 4
  store i32 1, ptr %11, align 4
  br label %39

39:                                               ; preds = %35, %34
  call void @llvm.lifetime.end.p0(i64 8, ptr %10) #10
  br label %73

40:                                               ; preds = %22
  %41 = load ptr, ptr %6, align 8, !tbaa !4
  %42 = call i32 @strcmp(ptr noundef %41, ptr noundef @.str.443) #11
  %43 = icmp eq i32 %42, 0
  br i1 %43, label %44, label %51

44:                                               ; preds = %40
  %45 = load ptr, ptr %7, align 8, !tbaa !4
  %46 = load ptr, ptr %8, align 8, !tbaa !346
  %47 = getelementptr inbounds nuw %struct.pkey_data_st, ptr %46, i32 0, i32 7
  %48 = load ptr, ptr %8, align 8, !tbaa !346
  %49 = getelementptr inbounds nuw %struct.pkey_data_st, ptr %48, i32 0, i32 8
  %50 = call i32 @parse_bin(ptr noundef %45, ptr noundef %47, ptr noundef %49)
  store i32 %50, ptr %4, align 4
  store i32 1, ptr %11, align 4
  br label %73

51:                                               ; preds = %40
  %52 = load ptr, ptr %6, align 8, !tbaa !4
  %53 = call i32 @strcmp(ptr noundef %52, ptr noundef @.str.252) #11
  %54 = icmp eq i32 %53, 0
  br i1 %54, label %55, label %62

55:                                               ; preds = %51
  %56 = load ptr, ptr %5, align 8, !tbaa !15
  %57 = load ptr, ptr %8, align 8, !tbaa !346
  %58 = getelementptr inbounds nuw %struct.pkey_data_st, ptr %57, i32 0, i32 10
  %59 = load ptr, ptr %58, align 8, !tbaa !351
  %60 = load ptr, ptr %7, align 8, !tbaa !4
  %61 = call i32 @pkey_add_control(ptr noundef %56, ptr noundef %59, ptr noundef %60)
  store i32 %61, ptr %4, align 4
  store i32 1, ptr %11, align 4
  br label %73

62:                                               ; preds = %51
  %63 = load ptr, ptr %6, align 8, !tbaa !4
  %64 = call i32 @strcmp(ptr noundef %63, ptr noundef @.str.95) #11
  %65 = icmp eq i32 %64, 0
  br i1 %65, label %66, label %72

66:                                               ; preds = %62
  %67 = load ptr, ptr %8, align 8, !tbaa !346
  %68 = getelementptr inbounds nuw %struct.pkey_data_st, ptr %67, i32 0, i32 9
  %69 = load ptr, ptr %68, align 8, !tbaa !348
  %70 = load ptr, ptr %7, align 8, !tbaa !4
  %71 = call i32 @ctrladd(ptr noundef %69, ptr noundef %70)
  store i32 %71, ptr %4, align 4
  store i32 1, ptr %11, align 4
  br label %73

72:                                               ; preds = %62
  store i32 0, ptr %4, align 4
  store i32 1, ptr %11, align 4
  br label %73

73:                                               ; preds = %72, %66, %55, %44, %39
  call void @llvm.lifetime.end.p0(i64 4, ptr %9) #10
  call void @llvm.lifetime.end.p0(i64 8, ptr %8) #10
  %74 = load i32, ptr %4, align 4
  ret i32 %74
}