; Function Attrs: nounwind uwtable
define internal range(i32 -1, 2) i32 @pderive_test_parse(ptr noundef captures(none) %0, ptr noundef readonly captures(none) %1, ptr noundef %2) #1 {
  %4 = getelementptr inbounds nuw i8, ptr %0, i64 35272
  %5 = load ptr, ptr %4, align 8, !tbaa !20
  %6 = tail call i32 @strcmp(ptr noundef nonnull dereferenceable(1) %1, ptr noundef nonnull dereferenceable(16) @.str.441) #11
  %7 = icmp eq i32 %6, 0
  %spec.store.select = zext i1 %7 to i32
  br i1 %7, label %11, label %8

8:                                                ; preds = %3
  %9 = tail call i32 @strcmp(ptr noundef nonnull dereferenceable(1) %1, ptr noundef nonnull dereferenceable(8) @.str.442) #11
  %10 = icmp eq i32 %9, 0
  br i1 %10, label %11, label %24

11:                                               ; preds = %8, %3
  %12 = getelementptr inbounds nuw i8, ptr %5, i64 96
  store i32 %spec.store.select, ptr %12, align 8, !tbaa !298
  %13 = load ptr, ptr @public_keys, align 8, !tbaa !47
  %.not11.i = icmp eq ptr %13, null
  br i1 %.not11.i, label %ctrladd.exit, label %.lr.ph.i

.lr.ph.i:                                         ; preds = %11, %17
  %.012.i = phi ptr [ %19, %17 ], [ %13, %11 ]
  %14 = load ptr, ptr %.012.i, align 8, !tbaa !49
  %15 = tail call i32 @strcmp(ptr noundef nonnull dereferenceable(1) %14, ptr noundef nonnull readonly dereferenceable(1) %2) #11
  %16 = icmp eq i32 %15, 0
  br i1 %16, label %20, label %17

17:                                               ; preds = %.lr.ph.i
  %18 = getelementptr inbounds nuw i8, ptr %.012.i, i64 16
  %19 = load ptr, ptr %18, align 8, !tbaa !52
  %.not.i = icmp eq ptr %19, null
  br i1 %.not.i, label %ctrladd.exit, label %.lr.ph.i, !llvm.loop !53

20:                                               ; preds = %.lr.ph.i
  %21 = getelementptr inbounds nuw i8, ptr %.012.i, i64 8
  %22 = load ptr, ptr %21, align 8, !tbaa !54
  %23 = getelementptr inbounds nuw i8, ptr %5, i64 88
  store ptr %22, ptr %23, align 8, !tbaa !299
  br label %ctrladd.exit

24:                                               ; preds = %8
  %25 = tail call i32 @strcmp(ptr noundef nonnull dereferenceable(1) %1, ptr noundef nonnull dereferenceable(13) @.str.443) #11
  %26 = icmp eq i32 %25, 0
  br i1 %26, label %27, label %31

27:                                               ; preds = %24
  %28 = getelementptr inbounds nuw i8, ptr %5, i64 56
  %29 = getelementptr inbounds nuw i8, ptr %5, i64 64
  %30 = tail call fastcc i32 @parse_bin(ptr noundef %2, ptr noundef nonnull %28, ptr noundef nonnull %29)
  br label %ctrladd.exit

31:                                               ; preds = %24
  %32 = tail call i32 @strcmp(ptr noundef nonnull dereferenceable(1) %1, ptr noundef nonnull dereferenceable(5) @.str.252) #11
  %33 = icmp eq i32 %32, 0
  br i1 %33, label %34, label %38

34:                                               ; preds = %31
  %35 = getelementptr inbounds nuw i8, ptr %5, i64 80
  %36 = load ptr, ptr %35, align 8, !tbaa !289
  %37 = tail call fastcc i32 @pkey_add_control(ptr noundef nonnull %0, ptr noundef %36, ptr noundef %2)
  br label %ctrladd.exit

38:                                               ; preds = %31
  %39 = tail call i32 @strcmp(ptr noundef nonnull dereferenceable(1) %1, ptr noundef nonnull dereferenceable(9) @.str.95) #11
  %40 = icmp eq i32 %39, 0
  br i1 %40, label %41, label %ctrladd.exit

41:                                               ; preds = %38
  %42 = getelementptr inbounds nuw i8, ptr %5, i64 72
  %43 = load ptr, ptr %42, align 8, !tbaa !288
  %44 = tail call noalias ptr @CRYPTO_strdup(ptr noundef %2, ptr noundef nonnull @.str.29, i32 noundef 202) #10
  %45 = icmp eq ptr %44, null
  br i1 %45, label %ctrladd.exit, label %46

46:                                               ; preds = %41
  %47 = tail call i32 @OPENSSL_sk_push(ptr noundef %43, ptr noundef nonnull %44) #10
  %48 = icmp slt i32 %47, 1
  br i1 %48, label %49, label %ctrladd.exit

49:                                               ; preds = %46
  tail call void @CRYPTO_free(ptr noundef nonnull %44, ptr noundef nonnull @.str.29, i32 noundef 208) #10
  br label %ctrladd.exit

ctrladd.exit:                                     ; preds = %17, %11, %49, %46, %41, %20, %38, %34, %27
  %.1 = phi i32 [ %30, %27 ], [ %37, %34 ], [ 0, %38 ], [ 1, %20 ], [ -1, %49 ], [ -1, %41 ], [ 1, %46 ], [ -1, %11 ], [ -1, %17 ]
  ret i32 %.1
}